target datalayout = "e-m:e-p270:32:32-p271:32:32-p272:64:64-i64:64-i128:128-f80:128-n8:16:32:64-S128"
target triple = "x86_64-pc-linux-gnu"

%struct.SDL_Renderer = type { ptr, ptr, ptr, ptr, ptr, ptr, ptr, ptr, ptr, ptr, ptr, ptr, ptr, ptr, ptr, ptr, ptr, ptr, ptr, ptr, ptr, ptr, ptr, ptr, ptr, ptr, ptr, ptr, ptr, ptr, i32, i8, ptr, i8, i8, i8, i64, i64, ptr, %struct.SDL_RenderViewState, %struct.SDL_FPoint, i32, i32, ptr, ptr, ptr, i32, float, float, float, float, %struct.SDL_FColor, i32, i32, i32, ptr, ptr, ptr, ptr, i32, %struct.SDL_FColor, float, %struct.SDL_Rect, %struct.SDL_Rect, i8, i8, i8, i8, ptr, i64, i64, i8, ptr, ptr, i32, ptr, i8, ptr, ptr }
%struct.SDL_RenderViewState = type { i32, i32, %struct.SDL_Rect, %struct.SDL_Rect, %struct.SDL_Rect, %struct.SDL_Rect, i8, %struct.SDL_FPoint, i32, i32, i32, %struct.SDL_FRect, %struct.SDL_FRect, %struct.SDL_FPoint, %struct.SDL_FPoint, %struct.SDL_FPoint }
%struct.SDL_FRect = type { float, float, float, float }
%struct.SDL_FPoint = type { float, float }
%struct.SDL_FColor = type { float, float, float, float }
%struct.SDL_Rect = type { i32, i32, i32, i32 }
%struct.GPU_RenderData = type { ptr, %struct.GPU_Shaders, %struct.GPU_PipelineCache, %struct.anon, %struct.anon.0, %struct.anon.1, %struct.anon.2, [8 x ptr] }
%struct.GPU_Shaders = type { [3 x ptr], [6 x ptr] }
%struct.GPU_PipelineCache = type { ptr }
%struct.anon = type { ptr, i32, i32, i32 }
%struct.anon.0 = type { i32, i32 }
%struct.anon.1 = type { ptr, ptr, i32 }
%struct.anon.2 = type { ptr, ptr, ptr, %struct.SDL_GPUColorTargetInfo, %struct.SDL_GPUViewport, %struct.SDL_Rect, %struct.SDL_FColor, i8, i8 }
%struct.SDL_GPUColorTargetInfo = type { ptr, i32, i32, %struct.SDL_FColor, i32, i32, ptr, i32, i32, i8, i8, i8, i8 }
%struct.SDL_GPUViewport = type { float, float, float, float, float, float }
%struct.SDL_Texture = type { i32, i32, i32, i32, i32, float, float, i32, i32, i32, %struct.SDL_FColor, %struct.SDL_RenderViewState, ptr, ptr, ptr, ptr, i32, %struct.SDL_Rect, ptr, i32, i32, ptr, ptr, ptr }
%struct.GPU_TextureData = type { ptr, i32, i32, ptr, i32, %struct.SDL_Rect }
%struct.SDL_GPUTransferBufferCreateInfo = type { i32, i32, i32 }
%struct.SDL_GPUTextureTransferInfo = type { ptr, i32, i32, i32 }
%struct.SDL_GPUTextureRegion = type { ptr, i32, i32, i32, i32, i32, i32, i32, i32 }

@.str.10 = private unnamed_addr constant [21 x i8] c"update size overflow\00", align 1

; Function Attrs: alwaysinline nounwind uwtable
define internal zeroext i1 @SDL_size_mul_check_overflow_builtin(i64 noundef %0, i64 noundef %1, ptr noundef %2) #7 {
  %4 = alloca i64, align 8
  %5 = alloca i64, align 8
  %6 = alloca ptr, align 8
  store i64 %0, ptr %4, align 8
  store i64 %1, ptr %5, align 8
  store ptr %2, ptr %6, align 8
  %7 = load i64, ptr %4, align 8
  %8 = load i64, ptr %5, align 8
  %9 = load ptr, ptr %6, align 8
  %10 = call { i64, i1 } @llvm.umul.with.overflow.i64(i64 %7, i64 %8)
  %11 = extractvalue { i64, i1 } %10, 1
  %12 = extractvalue { i64, i1 } %10, 0
  store i64 %12, ptr %9, align 8
  %13 = zext i1 %11 to i32
  %14 = icmp eq i32 %13, 0
  ret i1 %14
}

; Function Attrs: nounwind uwtable
define internal zeroext i1 @GPU_UpdateTexture(ptr noundef %0, ptr noundef %1, ptr noundef %2, ptr noundef %3, i32 noundef %4) #0 {
  %6 = alloca i1, align 1
  %7 = alloca ptr, align 8
  %8 = alloca ptr, align 8
  %9 = alloca ptr, align 8
  %10 = alloca ptr, align 8
  %11 = alloca i32, align 4
  %12 = alloca ptr, align 8
  %13 = alloca ptr, align 8
  %14 = alloca i32, align 4
  %15 = alloca i64, align 8
  %16 = alloca i64, align 8
  %17 = alloca i32, align 4
  %18 = alloca %struct.SDL_GPUTransferBufferCreateInfo, align 4
  %19 = alloca ptr, align 8
  %20 = alloca ptr, align 8
  %21 = alloca ptr, align 8
  %22 = alloca i32, align 4
  %23 = alloca ptr, align 8
  %24 = alloca ptr, align 8
  %25 = alloca %struct.SDL_GPUTextureTransferInfo, align 8
  %26 = alloca %struct.SDL_GPUTextureRegion, align 8
  store ptr %0, ptr %7, align 8
  store ptr %1, ptr %8, align 8
  store ptr %2, ptr %9, align 8
  store ptr %3, ptr %10, align 8
  store i32 %4, ptr %11, align 4
  call void @llvm.lifetime.start.p0(i64 8, ptr %12) #10
  %27 = load ptr, ptr %7, align 8
  %28 = getelementptr inbounds nuw %struct.SDL_Renderer, ptr %27, i32 0, i32 77
  %29 = load ptr, ptr %28, align 8
  store ptr %29, ptr %12, align 8
  call void @llvm.lifetime.start.p0(i64 8, ptr %13) #10
  %30 = load ptr, ptr %8, align 8
  %31 = getelementptr inbounds nuw %struct.SDL_Texture, ptr %30, i32 0, i32 21
  %32 = load ptr, ptr %31, align 8
  store ptr %32, ptr %13, align 8
  call void @llvm.lifetime.start.p0(i64 4, ptr %14) #10
  %33 = load ptr, ptr %8, align 8
  %34 = getelementptr inbounds nuw %struct.SDL_Texture, ptr %33, i32 0, i32 0
  %35 = load i32, ptr %34, align 8
  %36 = icmp ne i32 %35, 0
  br i1 %36, label %37, label %67

37:                                               ; preds = %5
  %38 = load ptr, ptr %8, align 8
  %39 = getelementptr inbounds nuw %struct.SDL_Texture, ptr %38, i32 0, i32 0
  %40 = load i32, ptr %39, align 8
  %41 = lshr i32 %40, 28
  %42 = and i32 %41, 15
  %43 = icmp ne i32 %42, 1
  br i1 %43, label %44, label %67

44:                                               ; preds = %37
  %45 = load ptr, ptr %8, align 8
  %46 = getelementptr inbounds nuw %struct.SDL_Texture, ptr %45, i32 0, i32 0
  %47 = load i32, ptr %46, align 8
  %48 = icmp eq i32 %47, 844715353
  br i1 %48, label %64, label %49

49:                                               ; preds = %44
  %50 = load ptr, ptr %8, align 8
  %51 = getelementptr inbounds nuw %struct.SDL_Texture, ptr %50, i32 0, i32 0
  %52 = load i32, ptr %51, align 8
  %53 = icmp eq i32 %52, 1498831189
  br i1 %53, label %64, label %54

54:                                               ; preds = %49
  %55 = load ptr, ptr %8, align 8
  %56 = getelementptr inbounds nuw %struct.SDL_Texture, ptr %55, i32 0, i32 0
  %57 = load i32, ptr %56, align 8
  %58 = icmp eq i32 %57, 1431918169
  br i1 %58, label %64, label %59

59:                                               ; preds = %54
  %60 = load ptr, ptr %8, align 8
  %61 = getelementptr inbounds nuw %struct.SDL_Texture, ptr %60, i32 0, i32 0
  %62 = load i32, ptr %61, align 8
  %63 = icmp eq i32 %62, 808530000
  br label %64

64:                                               ; preds = %59, %54, %49, %44
  %65 = phi i1 [ true, %54 ], [ true, %49 ], [ true, %44 ], [ %63, %59 ]
  %66 = select i1 %65, i32 2, i32 1
  br label %73

67:                                               ; preds = %37, %5
  %68 = load ptr, ptr %8, align 8
  %69 = getelementptr inbounds nuw %struct.SDL_Texture, ptr %68, i32 0, i32 0
  %70 = load i32, ptr %69, align 8
  %71 = lshr i32 %70, 0
  %72 = and i32 %71, 255
  br label %73

73:                                               ; preds = %67, %64
  %74 = phi i32 [ %66, %64 ], [ %72, %67 ]
  store i32 %74, ptr %14, align 4
  call void @llvm.lifetime.start.p0(i64 8, ptr %15) #10
  call void @llvm.lifetime.start.p0(i64 8, ptr %16) #10
  %75 = load ptr, ptr %9, align 8
  %76 = getelementptr inbounds nuw %struct.SDL_Rect, ptr %75, i32 0, i32 2
  %77 = load i32, ptr %76, align 4
  %78 = sext i32 %77 to i64
  %79 = load i32, ptr %14, align 4
  %80 = zext i32 %79 to i64
  %81 = call zeroext i1 @SDL_size_mul_check_overflow_builtin(i64 noundef %78, i64 noundef %80, ptr noundef %15)
  br i1 %81, label %82, label %89

82:                                               ; preds = %73
  %83 = load ptr, ptr %9, align 8
  %84 = getelementptr inbounds nuw %struct.SDL_Rect, ptr %83, i32 0, i32 3
  %85 = load i32, ptr %84, align 4
  %86 = sext i32 %85 to i64
  %87 = load i64, ptr %15, align 8
  %88 = call zeroext i1 @SDL_size_mul_check_overflow_builtin(i64 noundef %86, i64 noundef %87, ptr noundef %16)
  br i1 %88, label %91, label %89

89:                                               ; preds = %82, %73
  %90 = call zeroext i1 (ptr, ...) @SDL_SetError_REAL(ptr noundef @.str.10)
  store i1 %90, ptr %6, align 1
  store i32 1, ptr %17, align 4
  br label %190

91:                                               ; preds = %82
  call void @llvm.lifetime.start.p0(i64 12, ptr %18) #10
  call void @llvm.memset.p0.i64(ptr align 4 %18, i8 0, i64 12, i1 false)
  %92 = load i64, ptr %16, align 8
  %93 = trunc i64 %92 to i32
  %94 = getelementptr inbounds nuw %struct.SDL_GPUTransferBufferCreateInfo, ptr %18, i32 0, i32 1
  store i32 %93, ptr %94, align 4
  %95 = getelementptr inbounds nuw %struct.SDL_GPUTransferBufferCreateInfo, ptr %18, i32 0, i32 0
  store i32 0, ptr %95, align 4
  call void @llvm.lifetime.start.p0(i64 8, ptr %19) #10
  %96 = load ptr, ptr %12, align 8
  %97 = getelementptr inbounds nuw %struct.GPU_RenderData, ptr %96, i32 0, i32 0
  %98 = load ptr, ptr %97, align 8
  %99 = call ptr @SDL_CreateGPUTransferBuffer_REAL(ptr noundef %98, ptr noundef %18)
  store ptr %99, ptr %19, align 8
  %100 = load ptr, ptr %19, align 8
  %101 = icmp eq ptr %100, null
  br i1 %101, label %102, label %103

102:                                              ; preds = %91
  store i1 false, ptr %6, align 1
  store i32 1, ptr %17, align 4
  br label %189

103:                                              ; preds = %91
  call void @llvm.lifetime.start.p0(i64 8, ptr %20) #10
  %104 = load ptr, ptr %12, align 8
  %105 = getelementptr inbounds nuw %struct.GPU_RenderData, ptr %104, i32 0, i32 0
  %106 = load ptr, ptr %105, align 8
  %107 = load ptr, ptr %19, align 8
  %108 = call ptr @SDL_MapGPUTransferBuffer_REAL(ptr noundef %106, ptr noundef %107, i1 noundef zeroext false)
  store ptr %108, ptr %20, align 8
  %109 = load i32, ptr %11, align 4
  %110 = sext i32 %109 to i64
  %111 = load i64, ptr %15, align 8
  %112 = icmp eq i64 %110, %111
  br i1 %112, label %113, label %117

113:                                              ; preds = %103
  %114 = load ptr, ptr %20, align 8
  %115 = load ptr, ptr %10, align 8
  %116 = load i64, ptr %16, align 8
  call void @llvm.memcpy.p0.p0.i64(ptr align 1 %114, ptr align 1 %115, i64 %116, i1 false)
  br label %141

117:                                              ; preds = %103
  call void @llvm.lifetime.start.p0(i64 8, ptr %21) #10
  %118 = load ptr, ptr %10, align 8
  store ptr %118, ptr %21, align 8
  call void @llvm.lifetime.start.p0(i64 4, ptr %22) #10
  store i32 0, ptr %22, align 4
  br label %119

119:                                              ; preds = %137, %117
  %120 = load i32, ptr %22, align 4
  %121 = load ptr, ptr %9, align 8
  %122 = getelementptr inbounds nuw %struct.SDL_Rect, ptr %121, i32 0, i32 3
  %123 = load i32, ptr %122, align 4
  %124 = icmp slt i32 %120, %123
  br i1 %124, label %126, label %125

125:                                              ; preds = %119
  store i32 2, ptr %17, align 4
  call void @llvm.lifetime.end.p0(i64 4, ptr %22) #10
  br label %140

126:                                              ; preds = %119
  %127 = load ptr, ptr %20, align 8
  %128 = load ptr, ptr %21, align 8
  %129 = load i64, ptr %15, align 8
  call void @llvm.memcpy.p0.p0.i64(ptr align 1 %127, ptr align 1 %128, i64 %129, i1 false)
  %130 = load i64, ptr %15, align 8
  %131 = load ptr, ptr %20, align 8
  %132 = getelementptr inbounds nuw i8, ptr %131, i64 %130
  store ptr %132, ptr %20, align 8
  %133 = load i32, ptr %11, align 4
  %134 = load ptr, ptr %21, align 8
  %135 = sext i32 %133 to i64
  %136 = getelementptr inbounds i8, ptr %134, i64 %135
  store ptr %136, ptr %21, align 8
  br label %137

137:                                              ; preds = %126
  %138 = load i32, ptr %22, align 4
  %139 = add nsw i32 %138, 1
  store i32 %139, ptr %22, align 4
  br label %119, !llvm.loop !5

140:                                              ; preds = %125
  call void @llvm.lifetime.end.p0(i64 8, ptr %21) #10
  br label %141

141:                                              ; preds = %140, %113
  %142 = load ptr, ptr %12, align 8
  %143 = getelementptr inbounds nuw %struct.GPU_RenderData, ptr %142, i32 0, i32 0
  %144 = load ptr, ptr %143, align 8
  %145 = load ptr, ptr %19, align 8
  call void @SDL_UnmapGPUTransferBuffer_REAL(ptr noundef %144, ptr noundef %145)
  call void @llvm.lifetime.start.p0(i64 8, ptr %23) #10
  %146 = load ptr, ptr %12, align 8
  %147 = getelementptr inbounds nuw %struct.GPU_RenderData, ptr %146, i32 0, i32 6
  %148 = getelementptr inbounds nuw %struct.anon.2, ptr %147, i32 0, i32 2
  %149 = load ptr, ptr %148, align 8
  store ptr %149, ptr %23, align 8
  call void @llvm.lifetime.start.p0(i64 8, ptr %24) #10
  %150 = load ptr, ptr %23, align 8
  %151 = call ptr @SDL_BeginGPUCopyPass_REAL(ptr noundef %150)
  store ptr %151, ptr %24, align 8
  call void @llvm.lifetime.start.p0(i64 24, ptr %25) #10
  call void @llvm.memset.p0.i64(ptr align 8 %25, i8 0, i64 24, i1 false)
  %152 = load ptr, ptr %19, align 8
  %153 = getelementptr inbounds nuw %struct.SDL_GPUTextureTransferInfo, ptr %25, i32 0, i32 0
  store ptr %152, ptr %153, align 8
  %154 = load ptr, ptr %9, align 8
  %155 = getelementptr inbounds nuw %struct.SDL_Rect, ptr %154, i32 0, i32 3
  %156 = load i32, ptr %155, align 4
  %157 = getelementptr inbounds nuw %struct.SDL_GPUTextureTransferInfo, ptr %25, i32 0, i32 3
  store i32 %156, ptr %157, align 8
  %158 = load ptr, ptr %9, align 8
  %159 = getelementptr inbounds nuw %struct.SDL_Rect, ptr %158, i32 0, i32 2
  %160 = load i32, ptr %159, align 4
  %161 = getelementptr inbounds nuw %struct.SDL_GPUTextureTransferInfo, ptr %25, i32 0, i32 2
  store i32 %160, ptr %161, align 4
  call void @llvm.lifetime.start.p0(i64 40, ptr %26) #10
  call void @llvm.memset.p0.i64(ptr align 8 %26, i8 0, i64 40, i1 false)
  %162 = load ptr, ptr %13, align 8
  %163 = getelementptr inbounds nuw %struct.GPU_TextureData, ptr %162, i32 0, i32 0
  %164 = load ptr, ptr %163, align 8
  %165 = getelementptr inbounds nuw %struct.SDL_GPUTextureRegion, ptr %26, i32 0, i32 0
  store ptr %164, ptr %165, align 8
  %166 = load ptr, ptr %9, align 8
  %167 = getelementptr inbounds nuw %struct.SDL_Rect, ptr %166, i32 0, i32 0
  %168 = load i32, ptr %167, align 4
  %169 = getelementptr inbounds nuw %struct.SDL_GPUTextureRegion, ptr %26, i32 0, i32 3
  store i32 %168, ptr %169, align 8
  %170 = load ptr, ptr %9, align 8
  %171 = getelementptr inbounds nuw %struct.SDL_Rect, ptr %170, i32 0, i32 1
  %172 = load i32, ptr %171, align 4
  %173 = getelementptr inbounds nuw %struct.SDL_GPUTextureRegion, ptr %26, i32 0, i32 4
  store i32 %172, ptr %173, align 4
  %174 = load ptr, ptr %9, align 8
  %175 = getelementptr inbounds nuw %struct.SDL_Rect, ptr %174, i32 0, i32 2
  %176 = load i32, ptr %175, align 4
  %177 = getelementptr inbounds nuw %struct.SDL_GPUTextureRegion, ptr %26, i32 0, i32 6
  store i32 %176, ptr %177, align 4
  %178 = load ptr, ptr %9, align 8
  %179 = getelementptr inbounds nuw %struct.SDL_Rect, ptr %178, i32 0, i32 3
  %180 = load i32, ptr %179, align 4
  %181 = getelementptr inbounds nuw %struct.SDL_GPUTextureRegion, ptr %26, i32 0, i32 7
  store i32 %180, ptr %181, align 8
  %182 = getelementptr inbounds nuw %struct.SDL_GPUTextureRegion, ptr %26, i32 0, i32 8
  store i32 1, ptr %182, align 4
  %183 = load ptr, ptr %24, align 8
  call void @SDL_UploadToGPUTexture_REAL(ptr noundef %183, ptr noundef %25, ptr noundef %26, i1 noundef zeroext false)
  %184 = load ptr, ptr %24, align 8
  call void @SDL_EndGPUCopyPass_REAL(ptr noundef %184)
  %185 = load ptr, ptr %12, align 8
  %186 = getelementptr inbounds nuw %struct.GPU_RenderData, ptr %185, i32 0, i32 0
  %187 = load ptr, ptr %186, align 8
  %188 = load ptr, ptr %19, align 8
  call void @SDL_ReleaseGPUTransferBuffer_REAL(ptr noundef %187, ptr noundef %188)
  store i1 true, ptr %6, align 1
  store i32 1, ptr %17, align 4
  call void @llvm.lifetime.end.p0(i64 40, ptr %26) #10
  call void @llvm.lifetime.end.p0(i64 24, ptr %25) #10
  call void @llvm.lifetime.end.p0(i64 8, ptr %24) #10
  call void @llvm.lifetime.end.p0(i64 8, ptr %23) #10
  call void @llvm.lifetime.end.p0(i64 8, ptr %20) #10
  br label %189

189:                                              ; preds = %141, %102
  call void @llvm.lifetime.end.p0(i64 8, ptr %19) #10
  call void @llvm.lifetime.end.p0(i64 12, ptr %18) #10
  br label %190

190:                                              ; preds = %189, %89
  call void @llvm.lifetime.end.p0(i64 8, ptr %16) #10
  call void @llvm.lifetime.end.p0(i64 8, ptr %15) #10
  call void @llvm.lifetime.end.p0(i64 4, ptr %14) #10
  call void @llvm.lifetime.end.p0(i64 8, ptr %13) #10
  call void @llvm.lifetime.end.p0(i64 8, ptr %12) #10
  %191 = load i1, ptr %6, align 1
  ret i1 %191
}