; Function Attrs: nounwind uwtable
define internal zeroext i1 @GPU_UpdateTexture(ptr noundef readonly captures(none) %0, ptr noundef readonly captures(none) %1, ptr noundef readonly captures(none) %2, ptr noundef readonly captures(none) %3, i32 noundef %4) #0 {
  %6 = alloca %struct.SDL_GPUTransferBufferCreateInfo, align 4
  %7 = alloca %struct.SDL_GPUTextureTransferInfo, align 8
  %8 = alloca %struct.SDL_GPUTextureRegion, align 8
  %9 = getelementptr inbounds nuw i8, ptr %0, i64 696
  %10 = load ptr, ptr %9, align 8
  %11 = getelementptr inbounds nuw i8, ptr %1, i64 280
  %12 = load ptr, ptr %11, align 8
  %13 = load i32, ptr %1, align 8
  %.not = icmp eq i32 %13, 0
  %.mask = and i32 %13, -268435456
  %.not50 = icmp eq i32 %.mask, 268435456
  %or.cond = or i1 %.not, %.not50
  br i1 %or.cond, label %18, label %14

14:                                               ; preds = %5
  switch i32 %13, label %15 [
    i32 844715353, label %20
    i32 1498831189, label %20
    i32 1431918169, label %20
  ]

15:                                               ; preds = %14
  %16 = icmp eq i32 %13, 808530000
  %17 = select i1 %16, i32 2, i32 1
  br label %20

18:                                               ; preds = %5
  %19 = and i32 %13, 255
  br label %20

20:                                               ; preds = %15, %14, %14, %14, %18
  %21 = phi i32 [ %19, %18 ], [ 2, %14 ], [ %17, %15 ], [ 2, %14 ], [ 2, %14 ]
  %22 = getelementptr inbounds nuw i8, ptr %2, i64 8
  %23 = load i32, ptr %22, align 4
  %24 = sext i32 %23 to i64
  %25 = zext nneg i32 %21 to i64
  %26 = tail call { i64, i1 } @llvm.umul.with.overflow.i64(i64 range(i64 -2147483648, 2147483648) %24, i64 %25)
  %27 = extractvalue { i64, i1 } %26, 1
  %28 = extractvalue { i64, i1 } %26, 0
  br i1 %27, label %36, label %29

29:                                               ; preds = %20
  %30 = getelementptr inbounds nuw i8, ptr %2, i64 12
  %31 = load i32, ptr %30, align 4
  %32 = sext i32 %31 to i64
  %33 = tail call { i64, i1 } @llvm.umul.with.overflow.i64(i64 range(i64 -2147483648, 2147483648) %32, i64 %28)
  %34 = extractvalue { i64, i1 } %33, 1
  %35 = extractvalue { i64, i1 } %33, 0
  br i1 %34, label %36, label %38

36:                                               ; preds = %29, %20
  %37 = tail call zeroext i1 (ptr, ...) @SDL_SetError_REAL(ptr noundef nonnull @.str.10) #11
  br label %79

38:                                               ; preds = %29
  call void @llvm.lifetime.start.p0(i64 12, ptr nonnull %6) #11
  %39 = getelementptr inbounds nuw i8, ptr %6, i64 8
  store i32 0, ptr %39, align 4
  %40 = trunc i64 %35 to i32
  %41 = getelementptr inbounds nuw i8, ptr %6, i64 4
  store i32 %40, ptr %41, align 4
  store i32 0, ptr %6, align 4
  %42 = load ptr, ptr %10, align 8
  %43 = call ptr @SDL_CreateGPUTransferBuffer_REAL(ptr noundef %42, ptr noundef nonnull %6) #11
  %44 = icmp ne ptr %43, null
  br i1 %44, label %45, label %78

45:                                               ; preds = %38
  %46 = load ptr, ptr %10, align 8
  %47 = call ptr @SDL_MapGPUTransferBuffer_REAL(ptr noundef %46, ptr noundef nonnull %43, i1 noundef zeroext false) #11
  %48 = sext i32 %4 to i64
  %49 = icmp eq i64 %28, %48
  br i1 %49, label %52, label %.preheader

.preheader:                                       ; preds = %45
  %50 = load i32, ptr %30, align 4
  %51 = icmp sgt i32 %50, 0
  br i1 %51, label %.lr.ph, label %.loopexit

52:                                               ; preds = %45
  call void @llvm.memcpy.p0.p0.i64(ptr align 1 %47, ptr align 1 %3, i64 %35, i1 false)
  br label %.loopexit

.lr.ph:                                           ; preds = %.preheader, %.lr.ph
  %.04458 = phi i32 [ %55, %.lr.ph ], [ 0, %.preheader ]
  %.04557 = phi ptr [ %54, %.lr.ph ], [ %3, %.preheader ]
  %.04656 = phi ptr [ %53, %.lr.ph ], [ %47, %.preheader ]
  call void @llvm.memcpy.p0.p0.i64(ptr align 1 %.04656, ptr align 1 %.04557, i64 %28, i1 false)
  %53 = getelementptr inbounds nuw i8, ptr %.04656, i64 %28
  %54 = getelementptr inbounds i8, ptr %.04557, i64 %48
  %55 = add nuw nsw i32 %.04458, 1
  %56 = load i32, ptr %30, align 4
  %57 = icmp slt i32 %55, %56
  br i1 %57, label %.lr.ph, label %.loopexit, !llvm.loop !3

.loopexit:                                        ; preds = %.lr.ph, %.preheader, %52
  %58 = load ptr, ptr %10, align 8
  call void @SDL_UnmapGPUTransferBuffer_REAL(ptr noundef %58, ptr noundef nonnull %43) #11
  %59 = getelementptr inbounds nuw i8, ptr %10, i64 160
  %60 = load ptr, ptr %59, align 8
  %61 = call ptr @SDL_BeginGPUCopyPass_REAL(ptr noundef %60) #11
  call void @llvm.lifetime.start.p0(i64 24, ptr nonnull %7) #11
  %62 = getelementptr inbounds nuw i8, ptr %7, i64 8
  call void @llvm.memset.p0.i64(ptr noundef nonnull align 8 dereferenceable(16) %62, i8 0, i64 16, i1 false)
  store ptr %43, ptr %7, align 8
  %63 = load i32, ptr %30, align 4
  %64 = getelementptr inbounds nuw i8, ptr %7, i64 16
  store i32 %63, ptr %64, align 8
  %65 = load i32, ptr %22, align 4
  %66 = getelementptr inbounds nuw i8, ptr %7, i64 12
  store i32 %65, ptr %66, align 4
  call void @llvm.lifetime.start.p0(i64 40, ptr nonnull %8) #11
  %67 = getelementptr inbounds nuw i8, ptr %8, i64 8
  call void @llvm.memset.p0.i64(ptr noundef nonnull align 8 dereferenceable(24) %67, i8 0, i64 24, i1 false)
  %68 = load ptr, ptr %12, align 8
  store ptr %68, ptr %8, align 8
  %69 = load i32, ptr %2, align 4
  %70 = getelementptr inbounds nuw i8, ptr %8, i64 16
  store i32 %69, ptr %70, align 8
  %71 = getelementptr inbounds nuw i8, ptr %2, i64 4
  %72 = load i32, ptr %71, align 4
  %73 = getelementptr inbounds nuw i8, ptr %8, i64 20
  store i32 %72, ptr %73, align 4
  %74 = getelementptr inbounds nuw i8, ptr %8, i64 28
  store i32 %65, ptr %74, align 4
  %75 = getelementptr inbounds nuw i8, ptr %8, i64 32
  store i32 %63, ptr %75, align 8
  %76 = getelementptr inbounds nuw i8, ptr %8, i64 36
  store i32 1, ptr %76, align 4
  call void @SDL_UploadToGPUTexture_REAL(ptr noundef %61, ptr noundef nonnull %7, ptr noundef nonnull %8, i1 noundef zeroext false) #11
  call void @SDL_EndGPUCopyPass_REAL(ptr noundef %61) #11
  %77 = load ptr, ptr %10, align 8
  call void @SDL_ReleaseGPUTransferBuffer_REAL(ptr noundef %77, ptr noundef nonnull %43) #11
  call void @llvm.lifetime.end.p0(i64 40, ptr nonnull %8) #11
  call void @llvm.lifetime.end.p0(i64 24, ptr nonnull %7) #11
  br label %78

78:                                               ; preds = %38, %.loopexit
  call void @llvm.lifetime.end.p0(i64 12, ptr nonnull %6) #11
  br label %79

79:                                               ; preds = %78, %36
  %.0 = phi i1 [ %44, %78 ], [ %37, %36 ]
  ret i1 %.0
}